; Function Attrs: mustprogress uwtable
define void @_ZN3net11CryptoUtils20HashHandshakeMessageERKNS_22CryptoHandshakeMessageEPNSt7__cxx1112basic_stringIcSt11char_traitsIcESaIcEEE(ptr noundef nonnull align 8 dereferenceable(72) %0, ptr noundef %1) local_unnamed_addr #0 align 2 personality ptr @__gxx_personality_v0 {
  %3 = alloca %"class.std::unique_ptr.29", align 8
  %4 = alloca [32 x i8], align 16
  %5 = tail call noundef nonnull align 8 dereferenceable(25) ptr @_ZNK3net22CryptoHandshakeMessage13GetSerializedEv(ptr noundef nonnull align 8 dereferenceable(72) %0)
  call void @llvm.lifetime.start.p0(i64 8, ptr nonnull %3) #13
  call void @_ZN6crypto10SecureHash6CreateENS0_9AlgorithmE(ptr dead_on_unwind nonnull writable sret(%"class.std::unique_ptr.29") align 8 %3, i32 noundef 0)
  %6 = load ptr, ptr %3, align 8, !tbaa !85
  %7 = getelementptr inbounds nuw i8, ptr %5, i64 8
  %8 = load ptr, ptr %7, align 8, !tbaa !87
  %9 = getelementptr inbounds nuw i8, ptr %5, i64 16
  %10 = load i64, ptr %9, align 8, !tbaa !90
  %11 = load ptr, ptr %6, align 8, !tbaa !12
  %12 = getelementptr inbounds nuw i8, ptr %11, i64 16
  %13 = load ptr, ptr %12, align 8
  invoke void %13(ptr noundef nonnull align 8 dereferenceable(8) %6, ptr noundef %8, i64 noundef %10)
          to label %14 unwind label %27

14:                                               ; preds = %2
  call void @llvm.lifetime.start.p0(i64 32, ptr nonnull %4) #13
  %15 = load ptr, ptr %3, align 8, !tbaa !85
  %16 = load ptr, ptr %15, align 8, !tbaa !12
  %17 = getelementptr inbounds nuw i8, ptr %16, i64 24
  %18 = load ptr, ptr %17, align 8
  invoke void %18(ptr noundef nonnull align 8 dereferenceable(8) %15, ptr noundef nonnull %4, i64 noundef 32)
          to label %19 unwind label %29

19:                                               ; preds = %14
  %20 = getelementptr inbounds nuw i8, ptr %1, i64 8
  %21 = load i64, ptr %20, align 8, !tbaa !26
  %22 = invoke noundef nonnull align 8 dereferenceable(32) ptr @_ZNSt7__cxx1112basic_stringIcSt11char_traitsIcESaIcEE10_M_replaceEmmPKcm(ptr noundef nonnull align 8 dereferenceable(32) %1, i64 noundef 0, i64 noundef %21, ptr noundef nonnull %4, i64 noundef 32)
          to label %_ZNSt7__cxx1112basic_stringIcSt11char_traitsIcESaIcEE6assignEPKcm.exit unwind label %29

_ZNSt7__cxx1112basic_stringIcSt11char_traitsIcESaIcEE6assignEPKcm.exit: ; preds = %19
  call void @llvm.lifetime.end.p0(i64 32, ptr nonnull %4) #13
  %23 = load ptr, ptr %3, align 8, !tbaa !85
  %.not.i = icmp eq ptr %23, null
  br i1 %.not.i, label %_ZNSt10unique_ptrIN6crypto10SecureHashESt14default_deleteIS1_EED2Ev.exit, label %_ZNKSt14default_deleteIN6crypto10SecureHashEEclEPS1_.exit.i

_ZNKSt14default_deleteIN6crypto10SecureHashEEclEPS1_.exit.i: ; preds = %_ZNSt7__cxx1112basic_stringIcSt11char_traitsIcESaIcEE6assignEPKcm.exit
  %24 = load ptr, ptr %23, align 8, !tbaa !12
  %25 = getelementptr inbounds nuw i8, ptr %24, i64 8
  %26 = load ptr, ptr %25, align 8
  call void %26(ptr noundef nonnull align 8 dereferenceable(8) %23) #13
  br label %_ZNSt10unique_ptrIN6crypto10SecureHashESt14default_deleteIS1_EED2Ev.exit

_ZNSt10unique_ptrIN6crypto10SecureHashESt14default_deleteIS1_EED2Ev.exit: ; preds = %_ZNSt7__cxx1112basic_stringIcSt11char_traitsIcESaIcEE6assignEPKcm.exit, %_ZNKSt14default_deleteIN6crypto10SecureHashEEclEPS1_.exit.i
  call void @llvm.lifetime.end.p0(i64 8, ptr nonnull %3) #13
  ret void

27:                                               ; preds = %2
  %28 = landingpad { ptr, i32 }
          cleanup
  br label %31

29:                                               ; preds = %19, %14
  %30 = landingpad { ptr, i32 }
          cleanup
  call void @llvm.lifetime.end.p0(i64 32, ptr nonnull %4) #13
  br label %31

31:                                               ; preds = %29, %27
  %.pn = phi { ptr, i32 } [ %30, %29 ], [ %28, %27 ]
  %32 = load ptr, ptr %3, align 8, !tbaa !85
  %.not.i7 = icmp eq ptr %32, null
  br i1 %.not.i7, label %_ZNSt10unique_ptrIN6crypto10SecureHashESt14default_deleteIS1_EED2Ev.exit9, label %_ZNKSt14default_deleteIN6crypto10SecureHashEEclEPS1_.exit.i8

_ZNKSt14default_deleteIN6crypto10SecureHashEEclEPS1_.exit.i8: ; preds = %31
  %33 = load ptr, ptr %32, align 8, !tbaa !12
  %34 = getelementptr inbounds nuw i8, ptr %33, i64 8
  %35 = load ptr, ptr %34, align 8
  call void %35(ptr noundef nonnull align 8 dereferenceable(8) %32) #13
  br label %_ZNSt10unique_ptrIN6crypto10SecureHashESt14default_deleteIS1_EED2Ev.exit9

_ZNSt10unique_ptrIN6crypto10SecureHashESt14default_deleteIS1_EED2Ev.exit9: ; preds = %31, %_ZNKSt14default_deleteIN6crypto10SecureHashEEclEPS1_.exit.i8
  call void @llvm.lifetime.end.p0(i64 8, ptr nonnull %3) #13
  resume { ptr, i32 } %.pn
}